target datalayout = "e-m:e-p270:32:32-p271:32:32-p272:64:64-i64:64-i128:128-f80:128-n8:16:32:64-S128"
target triple = "x86_64-pc-linux-gnu"

@error = internal global [1044 x i8] zeroinitializer, align 16
@.str.2 = private unnamed_addr constant [13 x i8] c"0x%16llx: %s\00", align 1
@epos = internal global i64 0, align 8
@.str.6 = private unnamed_addr constant [6 x i8] c"multi\00", align 1
@.str.7 = private unnamed_addr constant [27 x i8] c"Unexpected MULTI in AOF %s\00", align 1
@.str.8 = private unnamed_addr constant [5 x i8] c"exec\00", align 1
@.str.9 = private unnamed_addr constant [26 x i8] c"Unexpected EXEC in AOF %s\00", align 1

; Function Attrs: nounwind uwtable
define dso_local i32 @readArgc(ptr noundef %0, ptr noundef %1) #0 {
  %3 = alloca ptr, align 8
  %4 = alloca ptr, align 8
  store ptr %0, ptr %3, align 8, !tbaa !15
  store ptr %1, ptr %4, align 8, !tbaa !17
  %5 = load ptr, ptr %3, align 8, !tbaa !15
  %6 = load ptr, ptr %4, align 8, !tbaa !17
  %7 = call i32 @readLong(ptr noundef %5, i8 noundef signext 42, ptr noundef %6)
  ret i32 %7
}

; Function Attrs: nounwind uwtable
define dso_local i32 @processRESP(ptr noundef %0, ptr noundef %1, ptr noundef %2) #0 {
  %4 = alloca i32, align 4
  %5 = alloca ptr, align 8
  %6 = alloca ptr, align 8
  %7 = alloca ptr, align 8
  %8 = alloca i64, align 8
  %9 = alloca ptr, align 8
  %10 = alloca i32, align 4
  %11 = alloca i32, align 4
  %12 = alloca [1024 x i8], align 16
  %13 = alloca [1024 x i8], align 16
  store ptr %0, ptr %5, align 8, !tbaa !15
  store ptr %1, ptr %6, align 8, !tbaa !5
  store ptr %2, ptr %7, align 8, !tbaa !21
  call void @llvm.lifetime.start.p0(i64 8, ptr %8) #10
  call void @llvm.lifetime.start.p0(i64 8, ptr %9) #10
  %14 = load ptr, ptr %5, align 8, !tbaa !15
  %15 = call i32 @readArgc(ptr noundef %14, ptr noundef %8)
  %16 = icmp ne i32 %15, 0
  br i1 %16, label %18, label %17

17:                                               ; preds = %3
  store i32 0, ptr %4, align 4
  store i32 1, ptr %10, align 4
  br label %79

18:                                               ; preds = %3
  call void @llvm.lifetime.start.p0(i64 4, ptr %11) #10
  store i32 0, ptr %11, align 4, !tbaa !23
  br label %19

19:                                               ; preds = %73, %18
  %20 = load i32, ptr %11, align 4, !tbaa !23
  %21 = sext i32 %20 to i64
  %22 = load i64, ptr %8, align 8, !tbaa !11
  %23 = icmp slt i64 %21, %22
  br i1 %23, label %25, label %24

24:                                               ; preds = %19
  store i32 2, ptr %10, align 4
  br label %76

25:                                               ; preds = %19
  %26 = load ptr, ptr %5, align 8, !tbaa !15
  %27 = call i32 @readString(ptr noundef %26, ptr noundef %9)
  %28 = icmp ne i32 %27, 0
  br i1 %28, label %30, label %29

29:                                               ; preds = %25
  store i32 0, ptr %4, align 4
  store i32 1, ptr %10, align 4
  br label %76

30:                                               ; preds = %25
  %31 = load i32, ptr %11, align 4, !tbaa !23
  %32 = icmp eq i32 %31, 0
  br i1 %32, label %33, label %71

33:                                               ; preds = %30
  %34 = load ptr, ptr %9, align 8, !tbaa !5
  %35 = call i32 @strcasecmp(ptr noundef %34, ptr noundef @.str.6) #9
  %36 = icmp eq i32 %35, 0
  br i1 %36, label %37, label %51

37:                                               ; preds = %33
  %38 = load ptr, ptr %7, align 8, !tbaa !21
  %39 = load i32, ptr %38, align 4, !tbaa !23
  %40 = add nsw i32 %39, 1
  store i32 %40, ptr %38, align 4, !tbaa !23
  %41 = icmp ne i32 %39, 0
  br i1 %41, label %42, label %50

42:                                               ; preds = %37
  call void @llvm.lifetime.start.p0(i64 1024, ptr %12) #10
  %43 = getelementptr inbounds [1024 x i8], ptr %12, i64 0, i64 0
  %44 = load ptr, ptr %6, align 8, !tbaa !5
  %45 = call i32 (ptr, i64, ptr, ...) @snprintf(ptr noundef %43, i64 noundef 1024, ptr noundef @.str.7, ptr noundef %44) #10
  %46 = load i64, ptr @epos, align 8, !tbaa !11
  %47 = getelementptr inbounds [1024 x i8], ptr %12, i64 0, i64 0
  %48 = call i32 (ptr, i64, ptr, ...) @snprintf(ptr noundef @error, i64 noundef 1044, ptr noundef @.str.2, i64 noundef %46, ptr noundef %47) #10
  call void @llvm.lifetime.end.p0(i64 1024, ptr %12) #10
  %49 = load ptr, ptr %9, align 8, !tbaa !5
  call void @zfree(ptr noundef %49)
  store i32 0, ptr %4, align 4
  store i32 1, ptr %10, align 4
  br label %76

50:                                               ; preds = %37
  br label %70

51:                                               ; preds = %33
  %52 = load ptr, ptr %9, align 8, !tbaa !5
  %53 = call i32 @strcasecmp(ptr noundef %52, ptr noundef @.str.8) #9
  %54 = icmp eq i32 %53, 0
  br i1 %54, label %55, label %69

55:                                               ; preds = %51
  %56 = load ptr, ptr %7, align 8, !tbaa !21
  %57 = load i32, ptr %56, align 4, !tbaa !23
  %58 = add nsw i32 %57, -1
  store i32 %58, ptr %56, align 4, !tbaa !23
  %59 = icmp ne i32 %58, 0
  br i1 %59, label %60, label %68

60:                                               ; preds = %55
  call void @llvm.lifetime.start.p0(i64 1024, ptr %13) #10
  %61 = getelementptr inbounds [1024 x i8], ptr %13, i64 0, i64 0
  %62 = load ptr, ptr %6, align 8, !tbaa !5
  %63 = call i32 (ptr, i64, ptr, ...) @snprintf(ptr noundef %61, i64 noundef 1024, ptr noundef @.str.9, ptr noundef %62) #10
  %64 = load i64, ptr @epos, align 8, !tbaa !11
  %65 = getelementptr inbounds [1024 x i8], ptr %13, i64 0, i64 0
  %66 = call i32 (ptr, i64, ptr, ...) @snprintf(ptr noundef @error, i64 noundef 1044, ptr noundef @.str.2, i64 noundef %64, ptr noundef %65) #10
  call void @llvm.lifetime.end.p0(i64 1024, ptr %13) #10
  %67 = load ptr, ptr %9, align 8, !tbaa !5
  call void @zfree(ptr noundef %67)
  store i32 0, ptr %4, align 4
  store i32 1, ptr %10, align 4
  br label %76

68:                                               ; preds = %55
  br label %69

69:                                               ; preds = %68, %51
  br label %70

70:                                               ; preds = %69, %50
  br label %71

71:                                               ; preds = %70, %30
  %72 = load ptr, ptr %9, align 8, !tbaa !5
  call void @zfree(ptr noundef %72)
  br label %73

73:                                               ; preds = %71
  %74 = load i32, ptr %11, align 4, !tbaa !23
  %75 = add nsw i32 %74, 1
  store i32 %75, ptr %11, align 4, !tbaa !23
  br label %19, !llvm.loop !25

76:                                               ; preds = %60, %42, %29, %24
  call void @llvm.lifetime.end.p0(i64 4, ptr %11) #10
  %77 = load i32, ptr %10, align 4
  switch i32 %77, label %79 [
    i32 2, label %78
  ]

78:                                               ; preds = %76
  store i32 1, ptr %4, align 4
  store i32 1, ptr %10, align 4
  br label %79

79:                                               ; preds = %78, %76, %17
  call void @llvm.lifetime.end.p0(i64 8, ptr %9) #10
  call void @llvm.lifetime.end.p0(i64 8, ptr %8) #10
  %80 = load i32, ptr %4, align 4
  ret i32 %80
}