; Function Attrs: nounwind uwtable
define dso_local range(i32 0, 2) i32 @processRESP(ptr noundef captures(none) %0, ptr noundef %1, ptr noundef captures(none) %2) local_unnamed_addr #4 {
  %4 = alloca i64, align 8
  %5 = alloca ptr, align 8
  %6 = alloca [1024 x i8], align 16
  %7 = alloca [1024 x i8], align 16
  call void @llvm.lifetime.start.p0(i64 8, ptr nonnull %4) #16
  call void @llvm.lifetime.start.p0(i64 8, ptr nonnull %5) #16
  %8 = call range(i32 0, 2) i32 @readLong(ptr noundef %0, i8 noundef signext 42, ptr noundef nonnull %4)
  %.not = icmp eq i32 %8, 0
  br i1 %.not, label %.loopexit, label %.preheader

.preheader:                                       ; preds = %3
  %9 = load i64, ptr %4, align 8, !tbaa !8
  %.not1520 = icmp slt i64 %9, 1
  br i1 %.not1520, label %.loopexit, label %.lr.ph

.lr.ph:                                           ; preds = %.preheader, %33
  %indvars.iv = phi i64 [ %indvars.iv.next, %33 ], [ 0, %.preheader ]
  %10 = call i32 @readString(ptr noundef %0, ptr noundef nonnull %5)
  %.not12 = icmp eq i32 %10, 0
  br i1 %.not12, label %.loopexit, label %11

11:                                               ; preds = %.lr.ph
  %12 = icmp eq i64 %indvars.iv, 0
  %.pre = load ptr, ptr %5, align 8, !tbaa !12
  br i1 %12, label %13, label %33

13:                                               ; preds = %11
  %14 = tail call i32 @strcasecmp(ptr noundef %.pre, ptr noundef nonnull @.str.6) #18
  %15 = icmp eq i32 %14, 0
  br i1 %15, label %16, label %23

16:                                               ; preds = %13
  %17 = load i32, ptr %2, align 4, !tbaa !15
  %18 = add nsw i32 %17, 1
  store i32 %18, ptr %2, align 4, !tbaa !15
  %.not14 = icmp eq i32 %17, 0
  br i1 %.not14, label %33, label %19

19:                                               ; preds = %16
  call void @llvm.lifetime.start.p0(i64 1024, ptr nonnull %6) #16
  %20 = call i32 (ptr, i64, ptr, ...) @snprintf(ptr noundef nonnull dereferenceable(1) %6, i64 noundef 1024, ptr noundef nonnull @.str.7, ptr noundef %1) #16
  %21 = load i64, ptr @epos, align 8, !tbaa !8
  %22 = call i32 (ptr, i64, ptr, ...) @snprintf(ptr noundef nonnull dereferenceable(1) @error, i64 noundef 1044, ptr noundef nonnull @.str.2, i64 noundef %21, ptr noundef nonnull %6) #16
  call void @llvm.lifetime.end.p0(i64 1024, ptr nonnull %6) #16
  br label %.loopexit.sink.split

23:                                               ; preds = %13
  %24 = tail call i32 @strcasecmp(ptr noundef %.pre, ptr noundef nonnull @.str.8) #18
  %25 = icmp eq i32 %24, 0
  br i1 %25, label %26, label %33

26:                                               ; preds = %23
  %27 = load i32, ptr %2, align 4, !tbaa !15
  %28 = add nsw i32 %27, -1
  store i32 %28, ptr %2, align 4, !tbaa !15
  %.not13 = icmp eq i32 %28, 0
  br i1 %.not13, label %33, label %29

29:                                               ; preds = %26
  call void @llvm.lifetime.start.p0(i64 1024, ptr nonnull %7) #16
  %30 = call i32 (ptr, i64, ptr, ...) @snprintf(ptr noundef nonnull dereferenceable(1) %7, i64 noundef 1024, ptr noundef nonnull @.str.9, ptr noundef %1) #16
  %31 = load i64, ptr @epos, align 8, !tbaa !8
  %32 = call i32 (ptr, i64, ptr, ...) @snprintf(ptr noundef nonnull dereferenceable(1) @error, i64 noundef 1044, ptr noundef nonnull @.str.2, i64 noundef %31, ptr noundef nonnull %7) #16
  call void @llvm.lifetime.end.p0(i64 1024, ptr nonnull %7) #16
  br label %.loopexit.sink.split

33:                                               ; preds = %16, %26, %23, %11
  tail call void @zfree(ptr noundef %.pre) #16
  %indvars.iv.next = add nuw nsw i64 %indvars.iv, 1
  %exitcond.not = icmp eq i64 %indvars.iv.next, %9
  br i1 %exitcond.not, label %.loopexit, label %.lr.ph, !llvm.loop !17

.loopexit.sink.split:                             ; preds = %29, %19
  call void @zfree(ptr noundef %.pre) #16
  br label %.loopexit

.loopexit:                                        ; preds = %.lr.ph, %33, %.loopexit.sink.split, %.preheader, %3
  %.011 = phi i32 [ 0, %3 ], [ 1, %.preheader ], [ 0, %.loopexit.sink.split ], [ 1, %33 ], [ 0, %.lr.ph ]
  call void @llvm.lifetime.end.p0(i64 8, ptr nonnull %5) #16
  call void @llvm.lifetime.end.p0(i64 8, ptr nonnull %4) #16
  ret i32 %.011
}